; Function Attrs: mustprogress nofree norecurse nosync nounwind willreturn memory(read, inaccessiblemem: none) uwtable
define hidden noundef i32 @_ZNK3smt5enode15get_num_th_varsEv(ptr nocapture noundef nonnull readonly align 8 dereferenceable(112) %this) local_unnamed_addr #6 align 2 {
entry:
  %m_th_var_list = getelementptr inbounds i8, ptr %this, i64 64
  %bf.load.i.i.i = load i32, ptr %m_th_var_list, align 8
  %cmp.i.i = icmp ugt i32 %bf.load.i.i.i, -257
  br i1 %cmp.i.i, label %_ZNK11id_var_listILin1ELin1EE4sizeEv.exit, label %while.body.i

while.body.i:                                     ; preds = %entry, %while.body.i
  %l.04.i = phi ptr [ %0, %while.body.i ], [ %m_th_var_list, %entry ]
  %r.03.i = phi i32 [ %inc.i, %while.body.i ], [ 0, %entry ]
  %inc.i = add i32 %r.03.i, 1
  %m_next.i.i = getelementptr inbounds i8, ptr %l.04.i, i64 8
  %0 = load ptr, ptr %m_next.i.i, align 8
  %tobool.not.i = icmp eq ptr %0, null
  br i1 %tobool.not.i, label %_ZNK11id_var_listILin1ELin1EE4sizeEv.exit, label %while.body.i, !llvm.loop !7

_ZNK11id_var_listILin1ELin1EE4sizeEv.exit:        ; preds = %while.body.i, %entry
  %retval.0.i = phi i32 [ 0, %entry ], [ %inc.i, %while.body.i ]
  ret i32 %retval.0.i
}